target datalayout = "e-m:e-p270:32:32-p271:32:32-p272:64:64-i64:64-i128:128-f80:128-n8:16:32:64-S128"
target triple = "x86_64-pc-linux-gnu"

%struct.ObjectPropertyType = type { ptr, i32, i32, i32, i32, i16, i16, i16, i16, i16, i32, i8 }

@.str.1 = private unnamed_addr constant [16 x i8] c"objectaddress.c\00", align 1
@get_object_property_data.prop_last = internal global ptr null, align 8
@.str.229 = private unnamed_addr constant [26 x i8] c"unrecognized class ID: %u\00", align 1
@__func__.get_object_property_data = private unnamed_addr constant [25 x i8] c"get_object_property_data\00", align 1

; Function Attrs: nounwind uwtable
define internal ptr @get_object_property_data(i32 noundef %0) #0 {
  %2 = alloca ptr, align 8
  %3 = alloca i32, align 4
  %4 = alloca i32, align 4
  %5 = alloca i32, align 4
  store i32 %0, ptr %3, align 4
  call void @llvm.lifetime.start.p0(i64 4, ptr %4) #10
  %6 = load ptr, ptr @get_object_property_data.prop_last, align 8
  %7 = icmp ne ptr %6, null
  br i1 %7, label %8, label %16

8:                                                ; preds = %1
  %9 = load ptr, ptr @get_object_property_data.prop_last, align 8
  %10 = getelementptr inbounds nuw %struct.ObjectPropertyType, ptr %9, i32 0, i32 1
  %11 = load i32, ptr %10, align 8
  %12 = load i32, ptr %3, align 4
  %13 = icmp eq i32 %11, %12
  br i1 %13, label %14, label %16

14:                                               ; preds = %8
  %15 = load ptr, ptr @get_object_property_data.prop_last, align 8
  store ptr %15, ptr %2, align 8
  store i32 1, ptr %5, align 4
  br label %52

16:                                               ; preds = %8, %1
  store i32 0, ptr %4, align 4
  br label %17

17:                                               ; preds = %37, %16
  %18 = load i32, ptr %4, align 4
  %19 = sext i32 %18 to i64
  %20 = icmp ult i64 %19, 37
  br i1 %20, label %21, label %40

21:                                               ; preds = %17
  %22 = load i32, ptr %4, align 4
  %23 = sext i32 %22 to i64
  %24 = getelementptr inbounds [37 x %struct.ObjectPropertyType], ptr @ObjectProperty, i64 0, i64 %23
  %25 = getelementptr inbounds nuw %struct.ObjectPropertyType, ptr %24, i32 0, i32 1
  %26 = load i32, ptr %25, align 8
  %27 = load i32, ptr %3, align 4
  %28 = icmp eq i32 %26, %27
  br i1 %28, label %29, label %36

29:                                               ; preds = %21
  %30 = load i32, ptr %4, align 4
  %31 = sext i32 %30 to i64
  %32 = getelementptr inbounds [37 x %struct.ObjectPropertyType], ptr @ObjectProperty, i64 0, i64 %31
  store ptr %32, ptr @get_object_property_data.prop_last, align 8
  %33 = load i32, ptr %4, align 4
  %34 = sext i32 %33 to i64
  %35 = getelementptr inbounds [37 x %struct.ObjectPropertyType], ptr @ObjectProperty, i64 0, i64 %34
  store ptr %35, ptr %2, align 8
  store i32 1, ptr %5, align 4
  br label %52

36:                                               ; preds = %21
  br label %37

37:                                               ; preds = %36
  %38 = load i32, ptr %4, align 4
  %39 = add i32 %38, 1
  store i32 %39, ptr %4, align 4
  br label %17, !llvm.loop !11

40:                                               ; preds = %17
  br label %41

41:                                               ; preds = %40
  br i1 true, label %42, label %44

42:                                               ; preds = %41
  %43 = call zeroext i1 @errstart_cold(i32 noundef 21, ptr noundef null) #11
  br i1 %43, label %46, label %49

44:                                               ; preds = %41
  %45 = call zeroext i1 @errstart(i32 noundef 21, ptr noundef null)
  br i1 %45, label %46, label %49

46:                                               ; preds = %44, %42
  %47 = load i32, ptr %3, align 4
  %48 = call i32 (ptr, ...) @errmsg_internal(ptr noundef @.str.229, i32 noundef %47)
  call void @errfinish(ptr noundef @.str.1, i32 noundef 2773, ptr noundef @__func__.get_object_property_data)
  br label %49

49:                                               ; preds = %46, %44, %42
  unreachable

50:                                               ; No predecessors!
  br label %51

51:                                               ; preds = %50
  store ptr null, ptr %2, align 8
  store i32 1, ptr %5, align 4
  br label %52

52:                                               ; preds = %51, %29, %14
  call void @llvm.lifetime.end.p0(i64 4, ptr %4) #10
  %53 = load ptr, ptr %2, align 8
  ret ptr %53
}

; Function Attrs: nounwind uwtable
define dso_local i32 @get_object_catcache_name(i32 noundef %0) #0 {
  %2 = alloca i32, align 4
  %3 = alloca ptr, align 8
  store i32 %0, ptr %2, align 4
  call void @llvm.lifetime.start.p0(i64 8, ptr %3) #10
  %4 = load i32, ptr %2, align 4
  %5 = call ptr @get_object_property_data(i32 noundef %4)
  store ptr %5, ptr %3, align 8
  %6 = load ptr, ptr %3, align 8
  %7 = getelementptr inbounds nuw %struct.ObjectPropertyType, ptr %6, i32 0, i32 4
  %8 = load i32, ptr %7, align 4
  call void @llvm.lifetime.end.p0(i64 8, ptr %3) #10
  ret i32 %8
}